# SymbolsHelper-Confirmed: 6.6.0 amd64 armel armhf hppa i386 powerpc sh4
libQt6WebChannelQuick.so.6 libqt6webchannelquick6 #MINVER#
* Build-Depends-Package: qt6-webchannel-dev
 Qt_6@Qt_6 6.6.0
 Qt_6_PRIVATE_API@Qt_6_PRIVATE_API 6.6.0
 _Z31qml_register_types_QtWebChannelv@Qt_6 6.6.0
 _ZN14QQmlWebChannel10transportsEv@Qt_6 6.6.0
 _ZN14QQmlWebChannel11qt_metacallEN11QMetaObject4CallEiPPv@Qt_6 6.6.0
 _ZN14QQmlWebChannel11qt_metacastEPKc@Qt_6 6.6.0
 (subst)_ZN14QQmlWebChannel13transports_atEP16QQmlListPropertyI7QObjectE{qptrdiff}@Qt_6 6.6.0
 _ZN14QQmlWebChannel14disconnectFromEP7QObject@Qt_6 6.6.0
 _ZN14QQmlWebChannel15registerObjectsERK4QMapI7QString8QVariantE@Qt_6 6.6.0
 _ZN14QQmlWebChannel16staticMetaObjectE@Qt_6 6.6.0
 _ZN14QQmlWebChannel16transports_clearEP16QQmlListPropertyI7QObjectE@Qt_6 6.6.0
 _ZN14QQmlWebChannel16transports_countEP16QQmlListPropertyI7QObjectE@Qt_6 6.6.0
 _ZN14QQmlWebChannel17registeredObjectsEv@Qt_6 6.6.0
 _ZN14QQmlWebChannel17transports_appendEP16QQmlListPropertyI7QObjectEPS1_@Qt_6 6.6.0
 (subst)_ZN14QQmlWebChannel20registeredObjects_atEP16QQmlListPropertyI7QObjectE{qptrdiff}@Qt_6 6.6.0
 _ZN14QQmlWebChannel21qmlAttachedPropertiesEP7QObject@Qt_6 6.6.0
 _ZN14QQmlWebChannel23registeredObjects_clearEP16QQmlListPropertyI7QObjectE@Qt_6 6.6.0
 _ZN14QQmlWebChannel23registeredObjects_countEP16QQmlListPropertyI7QObjectE@Qt_6 6.6.0
 _ZN14QQmlWebChannel24registeredObjects_appendEP16QQmlListPropertyI7QObjectEPS1_@Qt_6 6.6.0
 _ZN14QQmlWebChannel9connectToEP7QObject@Qt_6 6.6.0
 _ZN14QQmlWebChannelC1EP7QObject@Qt_6 6.6.0
 _ZN14QQmlWebChannelC2EP7QObject@Qt_6 6.6.0
 _ZN14QQmlWebChannelD0Ev@Qt_6 6.6.0
 _ZN14QQmlWebChannelD1Ev@Qt_6 6.6.0
 _ZN14QQmlWebChannelD2Ev@Qt_6 6.6.0
 _ZN22QQmlWebChannelAttached11qt_metacallEN11QMetaObject4CallEiPPv@Qt_6_PRIVATE_API 6.6.0
 _ZN22QQmlWebChannelAttached11qt_metacastEPKc@Qt_6_PRIVATE_API 6.6.0
 _ZN22QQmlWebChannelAttached16staticMetaObjectE@Qt_6_PRIVATE_API 6.6.0
 _ZN22QQmlWebChannelAttached5setIdERK7QString@Qt_6_PRIVATE_API 6.6.0
 _ZN22QQmlWebChannelAttached9idChangedERK7QString@Qt_6_PRIVATE_API 6.6.0
 _ZN22QQmlWebChannelAttachedC1EP7QObject@Qt_6_PRIVATE_API 6.6.0
 _ZN22QQmlWebChannelAttachedC2EP7QObject@Qt_6_PRIVATE_API 6.6.0
 _ZN22QQmlWebChannelAttachedD0Ev@Qt_6_PRIVATE_API 6.6.0
 _ZN22QQmlWebChannelAttachedD1Ev@Qt_6_PRIVATE_API 6.6.0
 _ZN22QQmlWebChannelAttachedD2Ev@Qt_6_PRIVATE_API 6.6.0
 _ZNK14QQmlWebChannel10metaObjectEv@Qt_6 6.6.0
 _ZNK22QQmlWebChannelAttached10metaObjectEv@Qt_6_PRIVATE_API 6.6.0
 _ZNK22QQmlWebChannelAttached2idEv@Qt_6_PRIVATE_API 6.6.0
 _ZTI14QQmlWebChannel@Qt_6 6.6.0
 _ZTI18QWebChannelPrivate@Qt_6 6.6.0
 _ZTI22QQmlWebChannelAttached@Qt_6_PRIVATE_API 6.6.0
 _ZTS14QQmlWebChannel@Qt_6 6.6.0
 _ZTS18QWebChannelPrivate@Qt_6 6.6.0
 _ZTS22QQmlWebChannelAttached@Qt_6_PRIVATE_API 6.6.0
 _ZTV14QQmlWebChannel@Qt_6 6.6.0
 _ZTV22QQmlWebChannelAttached@Qt_6_PRIVATE_API 6.6.0
