# SymbolsHelper-Confirmed: 6.6.0 amd64
libQt6WebChannel.so.6 libqt6webchannel6 #MINVER#
* Build-Depends-Package: qt6-webchannel-dev
 Qt_6@Qt_6 6.6.0
 Qt_6_PRIVATE_API@Qt_6_PRIVATE_API 6.6.0
 _ZN11QWebChannel11qt_metacallEN11QMetaObject4CallEiPPv@Qt_6 6.6.0
 _ZN11QWebChannel11qt_metacastEPKc@Qt_6 6.6.0
 _ZN11QWebChannel14disconnectFromEP28QWebChannelAbstractTransport@Qt_6 6.6.0
 _ZN11QWebChannel14registerObjectERK7QStringP7QObject@Qt_6 6.6.0
 _ZN11QWebChannel15registerObjectsERK5QHashI7QStringP7QObjectE@Qt_6 6.6.0
 _ZN11QWebChannel15setBlockUpdatesEb@Qt_6 6.6.0
 _ZN11QWebChannel16deregisterObjectEP7QObject@Qt_6 6.6.0
 _ZN11QWebChannel16staticMetaObjectE@Qt_6 6.6.0
 _ZN11QWebChannel19blockUpdatesChangedEb@Qt_6 6.6.0
 _ZN11QWebChannel20bindableBlockUpdatesEv@Qt_6 6.6.0
 _ZN11QWebChannel25setPropertyUpdateIntervalEi@Qt_6 6.6.0
 _ZN11QWebChannel30bindablePropertyUpdateIntervalEv@Qt_6 6.6.0
 _ZN11QWebChannel9connectToEP28QWebChannelAbstractTransport@Qt_6 6.6.0
 _ZN11QWebChannelC1EP7QObject@Qt_6 6.6.0
 _ZN11QWebChannelC1ER18QWebChannelPrivateP7QObject@Qt_6_PRIVATE_API 6.6.0
 _ZN11QWebChannelC2EP7QObject@Qt_6 6.6.0
 _ZN11QWebChannelC2ER18QWebChannelPrivateP7QObject@Qt_6_PRIVATE_API 6.6.0
 _ZN11QWebChannelD0Ev@Qt_6 6.6.0
 _ZN11QWebChannelD1Ev@Qt_6 6.6.0
 _ZN11QWebChannelD2Ev@Qt_6 6.6.0
 _ZN18QWebChannelPrivate21_q_transportDestroyedEP7QObject@Qt_6_PRIVATE_API 6.6.0
 _ZN18QWebChannelPrivate4initEv@Qt_6_PRIVATE_API 6.6.0
 _ZN20QMetaObjectPublisher10timerEventEP11QTimerEvent@Qt_6_PRIVATE_API 6.6.0
 _ZN20QMetaObjectPublisher10wrapResultERK8QVariantP28QWebChannelAbstractTransportRK7QString@Qt_6_PRIVATE_API 6.6.0
 _ZN20QMetaObjectPublisher11qt_metacallEN11QMetaObject4CallEiPPv@Qt_6_PRIVATE_API 6.6.0
 _ZN20QMetaObjectPublisher11qt_metacastEPKc@Qt_6_PRIVATE_API 6.6.0
 _ZN20QMetaObjectPublisher11setPropertyEP7QObjectiRK10QJsonValue@Qt_6_PRIVATE_API 6.6.0
 _ZN20QMetaObjectPublisher12invokeMethodEP7QObjectRK10QByteArrayRK10QJsonArray@Qt_6_PRIVATE_API 6.6.0
 _ZN20QMetaObjectPublisher12invokeMethodEP7QObjectRK11QMetaMethodRK10QJsonArray@Qt_6_PRIVATE_API 6.6.0
 _ZN20QMetaObjectPublisher12invokeMethodEP7QObjectiRK10QJsonArray@Qt_6_PRIVATE_API 6.6.0
 _ZN20QMetaObjectPublisher12isClientIdleEP28QWebChannelAbstractTransport@Qt_6_PRIVATE_API 6.6.0
 _ZN20QMetaObjectPublisher13handleMessageERK11QJsonObjectP28QWebChannelAbstractTransport@Qt_6_PRIVATE_API 6.6.0
 _ZN20QMetaObjectPublisher13signalEmittedEPK7QObjectiRK5QListI8QVariantE@Qt_6_PRIVATE_API 6.6.0
 _ZN20QMetaObjectPublisher14enqueueMessageERK11QJsonObjectP28QWebChannelAbstractTransport@Qt_6_PRIVATE_API 6.6.0
 _ZN20QMetaObjectPublisher14registerObjectERK7QStringP7QObject@Qt_6_PRIVATE_API 6.6.0
 _ZN20QMetaObjectPublisher15objectDestroyedEPK7QObject@Qt_6_PRIVATE_API 6.6.0
 _ZN20QMetaObjectPublisher15setBlockUpdatesEb@Qt_6_PRIVATE_API 6.6.0
 _ZN20QMetaObjectPublisher15setClientIsIdleEbP28QWebChannelAbstractTransport@Qt_6_PRIVATE_API 6.6.0
 _ZN20QMetaObjectPublisher16initializeClientEP28QWebChannelAbstractTransport@Qt_6_PRIVATE_API 6.6.0
 _ZN20QMetaObjectPublisher16signalHandlerForEPK7QObject@Qt_6_PRIVATE_API 6.6.0
 _ZN20QMetaObjectPublisher16staticMetaObjectE@Qt_6_PRIVATE_API 6.6.0
 _ZN20QMetaObjectPublisher16transportRemovedEP28QWebChannelAbstractTransport@Qt_6_PRIVATE_API 6.6.0
 _ZN20QMetaObjectPublisher18classInfoForObjectEPK7QObjectP28QWebChannelAbstractTransport@Qt_6_PRIVATE_API 6.6.0
 _ZN20QMetaObjectPublisher19blockUpdatesChangedEb@Qt_6_PRIVATE_API 6.6.0
 _ZN20QMetaObjectPublisher19invokeMethod_helperEP7QObjectRK11QMetaMethodRK10QJsonArray@Qt_6_PRIVATE_API 6.6.0
 _ZN20QMetaObjectPublisher20propertyValueChangedEPK7QObjecti@Qt_6_PRIVATE_API 6.6.0
 _ZN20QMetaObjectPublisher21onBlockUpdatesChangedEv@Qt_6_PRIVATE_API 6.6.0
 _ZN20QMetaObjectPublisher22propertyUpdateIntervalEv@Qt_6_PRIVATE_API 6.6.0
 _ZN20QMetaObjectPublisher23enqueueBroadcastMessageERK11QJsonObject@Qt_6_PRIVATE_API 6.6.0
 _ZN20QMetaObjectPublisher24startPropertyUpdateTimerEb@Qt_6_PRIVATE_API 6.6.0
 _ZN20QMetaObjectPublisher25initializePropertyUpdatesEP7QObjectRK11QJsonObject@Qt_6_PRIVATE_API 6.6.0
 _ZN20QMetaObjectPublisher25setPropertyUpdateIntervalEi@Qt_6_PRIVATE_API 6.6.0
 _ZN20QMetaObjectPublisher26sendPendingPropertyUpdatesEv@Qt_6_PRIVATE_API 6.6.0
 _ZN20QMetaObjectPublisher27sendEnqueuedPropertyUpdatesEP28QWebChannelAbstractTransport@Qt_6_PRIVATE_API 6.6.0
 _ZN20QMetaObjectPublisher7wrapMapERK4QMapI7QString8QVariantEP28QWebChannelAbstractTransportRKS1_@Qt_6_PRIVATE_API 6.6.0
 _ZN20QMetaObjectPublisher8wrapListERK5QListI8QVariantEP28QWebChannelAbstractTransportRK7QString@Qt_6_PRIVATE_API 6.6.0
 _ZN20QMetaObjectPublisherC1EP11QWebChannel@Qt_6_PRIVATE_API 6.6.0
 _ZN20QMetaObjectPublisherC2EP11QWebChannel@Qt_6_PRIVATE_API 6.6.0
 _ZN20QMetaObjectPublisherD0Ev@Qt_6_PRIVATE_API 6.6.0
 _ZN20QMetaObjectPublisherD1Ev@Qt_6_PRIVATE_API 6.6.0
 _ZN20QMetaObjectPublisherD2Ev@Qt_6_PRIVATE_API 6.6.0
 _ZN28QWebChannelAbstractTransport11qt_metacallEN11QMetaObject4CallEiPPv@Qt_6 6.6.0
 _ZN28QWebChannelAbstractTransport11qt_metacastEPKc@Qt_6 6.6.0
 _ZN28QWebChannelAbstractTransport15messageReceivedERK11QJsonObjectPS_@Qt_6 6.6.0
 _ZN28QWebChannelAbstractTransport16staticMetaObjectE@Qt_6 6.6.0
 _ZN28QWebChannelAbstractTransportC1EP7QObject@Qt_6 6.6.0
 _ZN28QWebChannelAbstractTransportC2EP7QObject@Qt_6 6.6.0
 _ZN28QWebChannelAbstractTransportD0Ev@Qt_6 6.6.0
 _ZN28QWebChannelAbstractTransportD1Ev@Qt_6 6.6.0
 _ZN28QWebChannelAbstractTransportD2Ev@Qt_6 6.6.0
 _ZNK11QWebChannel10metaObjectEv@Qt_6 6.6.0
 _ZNK11QWebChannel12blockUpdatesEv@Qt_6 6.6.0
 _ZNK11QWebChannel17registeredObjectsEv@Qt_6 6.6.0
 _ZNK11QWebChannel22propertyUpdateIntervalEv@Qt_6 6.6.0
 _ZNK20QMetaObjectPublisher10metaObjectEv@Qt_6_PRIVATE_API 6.6.0
 _ZNK20QMetaObjectPublisher10unwrapListE5QListI8QVariantE@Qt_6_PRIVATE_API 6.6.0
 _ZNK20QMetaObjectPublisher12blockUpdatesEv@Qt_6_PRIVATE_API 6.6.0
 _ZNK20QMetaObjectPublisher12unwrapObjectERK7QString@Qt_6_PRIVATE_API 6.6.0
 _ZNK20QMetaObjectPublisher13unwrapVariantERK8QVariant@Qt_6_PRIVATE_API 6.6.0
 _ZNK20QMetaObjectPublisher15conversionScoreERK10QJsonValuei@Qt_6_PRIVATE_API 6.6.0
 _ZNK20QMetaObjectPublisher16broadcastMessageERK11QJsonObject@Qt_6_PRIVATE_API 6.6.0
 _ZNK20QMetaObjectPublisher19deleteWrappedObjectEP7QObject@Qt_6_PRIVATE_API 6.6.0
 _ZNK20QMetaObjectPublisher21methodOverloadBadnessERK11QMetaMethodRK10QJsonArray@Qt_6_PRIVATE_API 6.6.0
 _ZNK20QMetaObjectPublisher9toVariantERK10QJsonValuei@Qt_6_PRIVATE_API 6.6.0
 _ZNK20QMetaObjectPublisher9unwrapMapE4QMapI7QString8QVariantE@Qt_6_PRIVATE_API 6.6.0
 _ZNK28QWebChannelAbstractTransport10metaObjectEv@Qt_6 6.6.0
 _ZTI11QWebChannel@Qt_6 6.6.0
 _ZTI20QMetaObjectPublisher@Qt_6_PRIVATE_API 6.6.0
 _ZTI28QWebChannelAbstractTransport@Qt_6 6.6.0
 _ZTS11QWebChannel@Qt_6 6.6.0
 _ZTS18QWebChannelPrivate@Qt_6_PRIVATE_API 6.6.0
 _ZTS20QMetaObjectPublisher@Qt_6_PRIVATE_API 6.6.0
 _ZTS28QWebChannelAbstractTransport@Qt_6 6.6.0
 _ZTV11QWebChannel@Qt_6 6.6.0
 _ZTV20QMetaObjectPublisher@Qt_6_PRIVATE_API 6.6.0
 _ZTV28QWebChannelAbstractTransport@Qt_6 6.6.0
